target datalayout = "e-m:e-p270:32:32-p271:32:32-p272:64:64-i64:64-i128:128-f80:128-n8:16:32:64-S128"
target triple = "x86_64-pc-linux-gnu"

; Function Attrs: mustprogress nounwind uwtable
define internal noundef i32 @_ZL14stbi__high_bitj(i32 noundef %0) #0 {
  %2 = alloca i32, align 4
  %3 = alloca i32, align 4
  %4 = alloca i32, align 4
  %5 = alloca i32, align 4
  store i32 %0, ptr %3, align 4, !tbaa !11
  call void @llvm.lifetime.start.p0(i64 4, ptr %4) #22
  store i32 0, ptr %4, align 4, !tbaa !11
  %6 = load i32, ptr %3, align 4, !tbaa !11
  %7 = icmp eq i32 %6, 0
  br i1 %7, label %8, label %9

8:                                                ; preds = %1
  store i32 -1, ptr %2, align 4
  store i32 1, ptr %5, align 4
  br label %49

9:                                                ; preds = %1
  %10 = load i32, ptr %3, align 4, !tbaa !11
  %11 = icmp uge i32 %10, 65536
  br i1 %11, label %12, label %17

12:                                               ; preds = %9
  %13 = load i32, ptr %4, align 4, !tbaa !11
  %14 = add nsw i32 %13, 16
  store i32 %14, ptr %4, align 4, !tbaa !11
  %15 = load i32, ptr %3, align 4, !tbaa !11
  %16 = lshr i32 %15, 16
  store i32 %16, ptr %3, align 4, !tbaa !11
  br label %17

17:                                               ; preds = %12, %9
  %18 = load i32, ptr %3, align 4, !tbaa !11
  %19 = icmp uge i32 %18, 256
  br i1 %19, label %20, label %25

20:                                               ; preds = %17
  %21 = load i32, ptr %4, align 4, !tbaa !11
  %22 = add nsw i32 %21, 8
  store i32 %22, ptr %4, align 4, !tbaa !11
  %23 = load i32, ptr %3, align 4, !tbaa !11
  %24 = lshr i32 %23, 8
  store i32 %24, ptr %3, align 4, !tbaa !11
  br label %25

25:                                               ; preds = %20, %17
  %26 = load i32, ptr %3, align 4, !tbaa !11
  %27 = icmp uge i32 %26, 16
  br i1 %27, label %28, label %33

28:                                               ; preds = %25
  %29 = load i32, ptr %4, align 4, !tbaa !11
  %30 = add nsw i32 %29, 4
  store i32 %30, ptr %4, align 4, !tbaa !11
  %31 = load i32, ptr %3, align 4, !tbaa !11
  %32 = lshr i32 %31, 4
  store i32 %32, ptr %3, align 4, !tbaa !11
  br label %33

33:                                               ; preds = %28, %25
  %34 = load i32, ptr %3, align 4, !tbaa !11
  %35 = icmp uge i32 %34, 4
  br i1 %35, label %36, label %41

36:                                               ; preds = %33
  %37 = load i32, ptr %4, align 4, !tbaa !11
  %38 = add nsw i32 %37, 2
  store i32 %38, ptr %4, align 4, !tbaa !11
  %39 = load i32, ptr %3, align 4, !tbaa !11
  %40 = lshr i32 %39, 2
  store i32 %40, ptr %3, align 4, !tbaa !11
  br label %41

41:                                               ; preds = %36, %33
  %42 = load i32, ptr %3, align 4, !tbaa !11
  %43 = icmp uge i32 %42, 2
  br i1 %43, label %44, label %47

44:                                               ; preds = %41
  %45 = load i32, ptr %4, align 4, !tbaa !11
  %46 = add nsw i32 %45, 1
  store i32 %46, ptr %4, align 4, !tbaa !11
  br label %47

47:                                               ; preds = %44, %41
  %48 = load i32, ptr %4, align 4, !tbaa !11
  store i32 %48, ptr %2, align 4
  store i32 1, ptr %5, align 4
  br label %49

49:                                               ; preds = %47, %8
  call void @llvm.lifetime.end.p0(i64 4, ptr %4) #22
  %50 = load i32, ptr %2, align 4
  ret i32 %50
}